; Function Attrs: nounwind uwtable
define internal void @fn_start_fl(ptr noundef %0, i32 noundef %1, i64 %2, ptr noundef %3) #0 {
  %5 = alloca %struct.strbuf, align 8
  call void @llvm.lifetime.start.p0(i64 24, ptr nonnull %5) #7
  call void @llvm.memcpy.p0.p0.i64(ptr noundef nonnull align 8 dereferenceable(24) %5, ptr noundef nonnull align 8 dereferenceable(24) @__const.fn_counter.buf_payload, i64 24, i1 false)
  call void @strbuf_add(ptr noundef nonnull %5, ptr noundef nonnull @.str.5, i64 noundef 6) #7
  call void @sq_append_quote_argv_pretty(ptr noundef nonnull %5, ptr noundef %3) #7
  call fastcc void @normal_io_write_fl(ptr noundef %0, i32 noundef %1, ptr noundef %5)
  call void @strbuf_release(ptr noundef nonnull %5) #7
  call void @llvm.lifetime.end.p0(i64 24, ptr nonnull %5) #7
  ret void
}